; Function Attrs: mustprogress nounwind null_pointer_is_valid sspstrong uwtable
define void @_ZN13ApplyLineEditD2Ev(ptr noundef align 8 dereferenceable_or_null(80) initializes((0, 8), (16, 24)) %0) unnamed_addr #7 align 2 {
  store ptr getelementptr inbounds nuw inrange(-16, 424) (i8, ptr @_ZTV13ApplyLineEdit, i64 16), ptr %0, align 8
  %2 = getelementptr inbounds nuw i8, ptr %0, i64 16
  store ptr getelementptr inbounds nuw inrange(-16, 64) (i8, ptr @_ZTV13ApplyLineEdit, i64 456), ptr %2, align 8
  %3 = getelementptr inbounds nuw i8, ptr %0, i64 40
  %4 = load ptr, ptr %3, align 8
  %.not.i.i.i = icmp eq ptr %4, null
  br i1 %.not.i.i.i, label %_ZN7QStringD2Ev.exit, label %_ZN17QArrayDataPointerIDsE5derefEv.exit.i.i

_ZN17QArrayDataPointerIDsE5derefEv.exit.i.i:      ; preds = %1
  %5 = atomicrmw sub ptr %4, i32 1 seq_cst, align 4
  %.not.i.i = icmp eq i32 %5, 1
  br i1 %.not.i.i, label %6, label %_ZN7QStringD2Ev.exit

6:                                                ; preds = %_ZN17QArrayDataPointerIDsE5derefEv.exit.i.i
  %7 = load ptr, ptr %3, align 8
  tail call void @_ZN10QArrayData10deallocateEPS_xx(ptr noundef %7, i64 noundef 2, i64 noundef 8) #14
  br label %_ZN7QStringD2Ev.exit

_ZN7QStringD2Ev.exit:                             ; preds = %1, %_ZN17QArrayDataPointerIDsE5derefEv.exit.i.i, %6
  tail call void @_ZN9QLineEditD2Ev(ptr noundef align 8 dereferenceable_or_null(40) %0) #14
  ret void
}